target datalayout = "e-m:e-p270:32:32-p271:32:32-p272:64:64-i64:64-i128:128-f80:128-n8:16:32:64-S128"
target triple = "x86_64-pc-linux-gnu"

%"class.g2o::SparseOptimizer" = type <{ %"struct.g2o::OptimizableGraph", ptr, i8, [7 x i8], %"class.std::vector.25", %"class.std::vector.25", %"class.std::vector.30", ptr, %"class.std::vector.35", i8, [7 x i8] }>
%"struct.g2o::OptimizableGraph" = type { %"class.g2o::HyperGraph", %"class.std::map", i64, %"class.std::vector", %"class.g2o::ParameterContainer", %"class.g2o::JacobianWorkspace" }
%"class.g2o::HyperGraph" = type { ptr, %"class.std::unordered_map", %"class.std::set" }
%"class.std::unordered_map" = type { %"class.std::_Hashtable" }
%"class.std::_Hashtable" = type { ptr, i64, %"struct.std::__detail::_Hash_node_base", i64, %"struct.std::__detail::_Prime_rehash_policy", ptr }
%"struct.std::__detail::_Hash_node_base" = type { ptr }
%"struct.std::__detail::_Prime_rehash_policy" = type { float, i64 }
%"class.std::set" = type { %"class.std::_Rb_tree" }
%"class.std::_Rb_tree" = type { %"struct.std::_Rb_tree<g2o::HyperGraph::Edge *, g2o::HyperGraph::Edge *, std::_Identity<g2o::HyperGraph::Edge *>, std::less<g2o::HyperGraph::Edge *>>::_Rb_tree_impl" }
%"struct.std::_Rb_tree<g2o::HyperGraph::Edge *, g2o::HyperGraph::Edge *, std::_Identity<g2o::HyperGraph::Edge *>, std::less<g2o::HyperGraph::Edge *>>::_Rb_tree_impl" = type { [8 x i8], %"struct.std::_Rb_tree_header" }
%"struct.std::_Rb_tree_header" = type { %"struct.std::_Rb_tree_node_base", i64 }
%"struct.std::_Rb_tree_node_base" = type { i32, ptr, ptr, ptr }
%"class.std::map" = type { %"class.std::_Rb_tree.6" }
%"class.std::_Rb_tree.6" = type { %"struct.std::_Rb_tree<std::__cxx11::basic_string<char>, std::pair<const std::__cxx11::basic_string<char>, std::__cxx11::basic_string<char>>, std::_Select1st<std::pair<const std::__cxx11::basic_string<char>, std::__cxx11::basic_string<char>>>, std::less<std::__cxx11::basic_string<char>>>::_Rb_tree_impl" }
%"struct.std::_Rb_tree<std::__cxx11::basic_string<char>, std::pair<const std::__cxx11::basic_string<char>, std::__cxx11::basic_string<char>>, std::_Select1st<std::pair<const std::__cxx11::basic_string<char>, std::__cxx11::basic_string<char>>>, std::less<std::__cxx11::basic_string<char>>>::_Rb_tree_impl" = type { [8 x i8], %"struct.std::_Rb_tree_header" }
%"class.std::vector" = type { %"struct.std::_Vector_base" }
%"struct.std::_Vector_base" = type { %"struct.std::_Vector_base<std::set<g2o::HyperGraphAction *>, std::allocator<std::set<g2o::HyperGraphAction *>>>::_Vector_impl" }
%"struct.std::_Vector_base<std::set<g2o::HyperGraphAction *>, std::allocator<std::set<g2o::HyperGraphAction *>>>::_Vector_impl" = type { %"struct.std::_Vector_base<std::set<g2o::HyperGraphAction *>, std::allocator<std::set<g2o::HyperGraphAction *>>>::_Vector_impl_data" }
%"struct.std::_Vector_base<std::set<g2o::HyperGraphAction *>, std::allocator<std::set<g2o::HyperGraphAction *>>>::_Vector_impl_data" = type { ptr, ptr, ptr }
%"class.g2o::ParameterContainer" = type <{ ptr, %"class.std::map.14", i8, [7 x i8] }>
%"class.std::map.14" = type { %"class.std::_Rb_tree.15" }
%"class.std::_Rb_tree.15" = type { %"struct.std::_Rb_tree<int, std::pair<const int, g2o::Parameter *>, std::_Select1st<std::pair<const int, g2o::Parameter *>>, std::less<int>>::_Rb_tree_impl" }
%"struct.std::_Rb_tree<int, std::pair<const int, g2o::Parameter *>, std::_Select1st<std::pair<const int, g2o::Parameter *>>, std::less<int>>::_Rb_tree_impl" = type { [8 x i8], %"struct.std::_Rb_tree_header" }
%"class.g2o::JacobianWorkspace" = type { %"class.std::vector.20", i32, i32 }
%"class.std::vector.20" = type { %"struct.std::_Vector_base.21" }
%"struct.std::_Vector_base.21" = type { %"struct.std::_Vector_base<Eigen::Matrix<double, -1, 1>, std::allocator<Eigen::Matrix<double, -1, 1>>>::_Vector_impl" }
%"struct.std::_Vector_base<Eigen::Matrix<double, -1, 1>, std::allocator<Eigen::Matrix<double, -1, 1>>>::_Vector_impl" = type { %"struct.std::_Vector_base<Eigen::Matrix<double, -1, 1>, std::allocator<Eigen::Matrix<double, -1, 1>>>::_Vector_impl_data" }
%"struct.std::_Vector_base<Eigen::Matrix<double, -1, 1>, std::allocator<Eigen::Matrix<double, -1, 1>>>::_Vector_impl_data" = type { ptr, ptr, ptr }
%"class.std::vector.25" = type { %"struct.std::_Vector_base.26" }
%"struct.std::_Vector_base.26" = type { %"struct.std::_Vector_base<g2o::OptimizableGraph::Vertex *, std::allocator<g2o::OptimizableGraph::Vertex *>>::_Vector_impl" }
%"struct.std::_Vector_base<g2o::OptimizableGraph::Vertex *, std::allocator<g2o::OptimizableGraph::Vertex *>>::_Vector_impl" = type { %"struct.std::_Vector_base<g2o::OptimizableGraph::Vertex *, std::allocator<g2o::OptimizableGraph::Vertex *>>::_Vector_impl_data" }
%"struct.std::_Vector_base<g2o::OptimizableGraph::Vertex *, std::allocator<g2o::OptimizableGraph::Vertex *>>::_Vector_impl_data" = type { ptr, ptr, ptr }
%"class.std::vector.30" = type { %"struct.std::_Vector_base.31" }
%"struct.std::_Vector_base.31" = type { %"struct.std::_Vector_base<g2o::OptimizableGraph::Edge *, std::allocator<g2o::OptimizableGraph::Edge *>>::_Vector_impl" }
%"struct.std::_Vector_base<g2o::OptimizableGraph::Edge *, std::allocator<g2o::OptimizableGraph::Edge *>>::_Vector_impl" = type { %"struct.std::_Vector_base<g2o::OptimizableGraph::Edge *, std::allocator<g2o::OptimizableGraph::Edge *>>::_Vector_impl_data" }
%"struct.std::_Vector_base<g2o::OptimizableGraph::Edge *, std::allocator<g2o::OptimizableGraph::Edge *>>::_Vector_impl_data" = type { ptr, ptr, ptr }
%"class.std::vector.35" = type { %"struct.std::_Vector_base.36" }
%"struct.std::_Vector_base.36" = type { %"struct.std::_Vector_base<g2o::G2OBatchStatistics, std::allocator<g2o::G2OBatchStatistics>>::_Vector_impl" }
%"struct.std::_Vector_base<g2o::G2OBatchStatistics, std::allocator<g2o::G2OBatchStatistics>>::_Vector_impl" = type { %"struct.std::_Vector_base<g2o::G2OBatchStatistics, std::allocator<g2o::G2OBatchStatistics>>::_Vector_impl_data" }
%"struct.std::_Vector_base<g2o::G2OBatchStatistics, std::allocator<g2o::G2OBatchStatistics>>::_Vector_impl_data" = type { ptr, ptr, ptr }
%"struct.g2o::HyperGraph::HyperGraphElement" = type { ptr }
%"class.g2o::HyperGraph::DataContainer" = type { ptr, ptr }
%"class.g2o::OptimizableGraph::Vertex" = type { %"class.g2o::HyperGraph::Vertex", %"class.g2o::HyperGraph::DataContainer", ptr, ptr, i32, i8, i8, i32, i32, [8 x i8], ptr }
%"class.g2o::HyperGraph::Vertex" = type { %"struct.g2o::HyperGraph::HyperGraphElement", i32, %"class.std::set" }

; Function Attrs: mustprogress nounwind uwtable
define linkonce_odr void @_ZNSt12_Destroy_auxILb1EE9__destroyIPPN3g2o16OptimizableGraph6VertexEEEvT_S7_(ptr noundef %0, ptr noundef %1) #4 comdat align 2 {
  %3 = alloca ptr, align 8
  %4 = alloca ptr, align 8
  store ptr %0, ptr %3, align 8
  store ptr %1, ptr %4, align 8
  ret void
}

; Function Attrs: mustprogress uwtable
define linkonce_odr void @_ZSt8_DestroyIPPN3g2o16OptimizableGraph6VertexEEvT_S5_(ptr noundef %0, ptr noundef %1) #5 comdat {
  %3 = alloca ptr, align 8
  %4 = alloca ptr, align 8
  store ptr %0, ptr %3, align 8
  store ptr %1, ptr %4, align 8
  %5 = load ptr, ptr %3, align 8
  %6 = load ptr, ptr %4, align 8
  call void @_ZNSt12_Destroy_auxILb1EE9__destroyIPPN3g2o16OptimizableGraph6VertexEEEvT_S7_(ptr noundef %5, ptr noundef %6)
  ret void
}

; Function Attrs: noreturn nounwind uwtable
define linkonce_odr hidden void @__clang_call_terminate(ptr noundef %0) #6 comdat {
  %2 = call ptr @__cxa_begin_catch(ptr %0) #3
  call void @_ZSt9terminatev() #17
  unreachable
}

; Function Attrs: mustprogress uwtable
define linkonce_odr void @_ZSt8_DestroyIPPN3g2o16OptimizableGraph6VertexES3_EvT_S5_RSaIT0_E(ptr noundef %0, ptr noundef %1, ptr noundef nonnull align 1 dereferenceable(1) %2) #5 comdat {
  %4 = alloca ptr, align 8
  %5 = alloca ptr, align 8
  %6 = alloca ptr, align 8
  store ptr %0, ptr %4, align 8
  store ptr %1, ptr %5, align 8
  store ptr %2, ptr %6, align 8
  %7 = load ptr, ptr %4, align 8
  %8 = load ptr, ptr %5, align 8
  call void @_ZSt8_DestroyIPPN3g2o16OptimizableGraph6VertexEEvT_S5_(ptr noundef %7, ptr noundef %8)
  ret void
}

; Function Attrs: mustprogress nounwind uwtable
define linkonce_odr noundef nonnull align 1 dereferenceable(1) ptr @_ZNSt12_Vector_baseIPN3g2o16OptimizableGraph6VertexESaIS3_EE19_M_get_Tp_allocatorEv(ptr noundef nonnull align 8 dereferenceable(24) %0) #4 comdat align 2 {
  %2 = alloca ptr, align 8
  store ptr %0, ptr %2, align 8
  %3 = load ptr, ptr %2, align 8
  %4 = getelementptr inbounds nuw %"struct.std::_Vector_base.26", ptr %3, i32 0, i32 0
  ret ptr %4
}

; Function Attrs: mustprogress nounwind uwtable
define linkonce_odr void @_ZNSt6vectorIPN3g2o16OptimizableGraph6VertexESaIS3_EE15_M_erase_at_endEPS3_(ptr noundef nonnull align 8 dereferenceable(24) %0, ptr noundef %1) #4 comdat align 2 personality ptr @__gxx_personality_v0 {
  %3 = alloca ptr, align 8
  %4 = alloca ptr, align 8
  %5 = alloca i64, align 8
  store ptr %0, ptr %3, align 8
  store ptr %1, ptr %4, align 8
  %6 = load ptr, ptr %3, align 8
  %7 = getelementptr inbounds nuw %"struct.std::_Vector_base.26", ptr %6, i32 0, i32 0
  %8 = getelementptr inbounds nuw %"struct.std::_Vector_base<g2o::OptimizableGraph::Vertex *, std::allocator<g2o::OptimizableGraph::Vertex *>>::_Vector_impl_data", ptr %7, i32 0, i32 1
  %9 = load ptr, ptr %8, align 8
  %10 = load ptr, ptr %4, align 8
  %11 = ptrtoint ptr %9 to i64
  %12 = ptrtoint ptr %10 to i64
  %13 = sub i64 %11, %12
  %14 = sdiv exact i64 %13, 8
  store i64 %14, ptr %5, align 8
  %15 = load i64, ptr %5, align 8
  %16 = icmp ne i64 %15, 0
  br i1 %16, label %17, label %27

17:                                               ; preds = %2
  %18 = load ptr, ptr %4, align 8
  %19 = getelementptr inbounds nuw %"struct.std::_Vector_base.26", ptr %6, i32 0, i32 0
  %20 = getelementptr inbounds nuw %"struct.std::_Vector_base<g2o::OptimizableGraph::Vertex *, std::allocator<g2o::OptimizableGraph::Vertex *>>::_Vector_impl_data", ptr %19, i32 0, i32 1
  %21 = load ptr, ptr %20, align 8
  %22 = call noundef nonnull align 1 dereferenceable(1) ptr @_ZNSt12_Vector_baseIPN3g2o16OptimizableGraph6VertexESaIS3_EE19_M_get_Tp_allocatorEv(ptr noundef nonnull align 8 dereferenceable(24) %6) #3
  invoke void @_ZSt8_DestroyIPPN3g2o16OptimizableGraph6VertexES3_EvT_S5_RSaIT0_E(ptr noundef %18, ptr noundef %21, ptr noundef nonnull align 1 dereferenceable(1) %22)
          to label %23 unwind label %28

23:                                               ; preds = %17
  %24 = load ptr, ptr %4, align 8
  %25 = getelementptr inbounds nuw %"struct.std::_Vector_base.26", ptr %6, i32 0, i32 0
  %26 = getelementptr inbounds nuw %"struct.std::_Vector_base<g2o::OptimizableGraph::Vertex *, std::allocator<g2o::OptimizableGraph::Vertex *>>::_Vector_impl_data", ptr %25, i32 0, i32 1
  store ptr %24, ptr %26, align 8
  br label %27

27:                                               ; preds = %23, %2
  ret void

28:                                               ; preds = %17
  %29 = landingpad { ptr, i32 }
          catch ptr null
  %30 = extractvalue { ptr, i32 } %29, 0
  call void @__clang_call_terminate(ptr %30) #17
  unreachable
}

; Function Attrs: mustprogress nounwind uwtable
define linkonce_odr void @_ZN3g2o16OptimizableGraph6Vertex15setHessianIndexEi(ptr noundef nonnull align 8 dereferenceable(128) %0, i32 noundef %1) #4 comdat align 2 {
  %3 = alloca ptr, align 8
  %4 = alloca i32, align 4
  store ptr %0, ptr %3, align 8
  store i32 %1, ptr %4, align 4
  %5 = load ptr, ptr %3, align 8
  %6 = load i32, ptr %4, align 4
  %7 = getelementptr inbounds nuw %"class.g2o::OptimizableGraph::Vertex", ptr %5, i32 0, i32 4
  store i32 %6, ptr %7, align 8
  ret void
}

; Function Attrs: mustprogress nounwind uwtable
define linkonce_odr noundef nonnull align 8 dereferenceable(8) ptr @_ZNSt6vectorIPN3g2o16OptimizableGraph6VertexESaIS3_EEixEm(ptr noundef nonnull align 8 dereferenceable(24) %0, i64 noundef %1) #4 comdat align 2 {
  %3 = alloca ptr, align 8
  %4 = alloca i64, align 8
  store ptr %0, ptr %3, align 8
  store i64 %1, ptr %4, align 8
  %5 = load ptr, ptr %3, align 8
  %6 = getelementptr inbounds nuw %"struct.std::_Vector_base.26", ptr %5, i32 0, i32 0
  %7 = getelementptr inbounds nuw %"struct.std::_Vector_base<g2o::OptimizableGraph::Vertex *, std::allocator<g2o::OptimizableGraph::Vertex *>>::_Vector_impl_data", ptr %6, i32 0, i32 0
  %8 = load ptr, ptr %7, align 8
  %9 = load i64, ptr %4, align 8
  %10 = getelementptr inbounds ptr, ptr %8, i64 %9
  ret ptr %10
}

; Function Attrs: mustprogress nounwind uwtable
define linkonce_odr noundef i64 @_ZNKSt6vectorIPN3g2o16OptimizableGraph6VertexESaIS3_EE4sizeEv(ptr noundef nonnull align 8 dereferenceable(24) %0) #4 comdat align 2 {
  %2 = alloca ptr, align 8
  store ptr %0, ptr %2, align 8
  %3 = load ptr, ptr %2, align 8
  %4 = getelementptr inbounds nuw %"struct.std::_Vector_base.26", ptr %3, i32 0, i32 0
  %5 = getelementptr inbounds nuw %"struct.std::_Vector_base<g2o::OptimizableGraph::Vertex *, std::allocator<g2o::OptimizableGraph::Vertex *>>::_Vector_impl_data", ptr %4, i32 0, i32 1
  %6 = load ptr, ptr %5, align 8
  %7 = getelementptr inbounds nuw %"struct.std::_Vector_base.26", ptr %3, i32 0, i32 0
  %8 = getelementptr inbounds nuw %"struct.std::_Vector_base<g2o::OptimizableGraph::Vertex *, std::allocator<g2o::OptimizableGraph::Vertex *>>::_Vector_impl_data", ptr %7, i32 0, i32 0
  %9 = load ptr, ptr %8, align 8
  %10 = ptrtoint ptr %6 to i64
  %11 = ptrtoint ptr %9 to i64
  %12 = sub i64 %10, %11
  %13 = sdiv exact i64 %12, 8
  ret i64 %13
}

; Function Attrs: mustprogress nounwind uwtable
define linkonce_odr void @_ZNSt6vectorIPN3g2o16OptimizableGraph6VertexESaIS3_EE5clearEv(ptr noundef nonnull align 8 dereferenceable(24) %0) #4 comdat align 2 {
  %2 = alloca ptr, align 8
  store ptr %0, ptr %2, align 8
  %3 = load ptr, ptr %2, align 8
  %4 = getelementptr inbounds nuw %"struct.std::_Vector_base.26", ptr %3, i32 0, i32 0
  %5 = getelementptr inbounds nuw %"struct.std::_Vector_base<g2o::OptimizableGraph::Vertex *, std::allocator<g2o::OptimizableGraph::Vertex *>>::_Vector_impl_data", ptr %4, i32 0, i32 0
  %6 = load ptr, ptr %5, align 8
  call void @_ZNSt6vectorIPN3g2o16OptimizableGraph6VertexESaIS3_EE15_M_erase_at_endEPS3_(ptr noundef nonnull align 8 dereferenceable(24) %3, ptr noundef %6) #3
  ret void
}

; Function Attrs: mustprogress uwtable
define void @_ZN3g2o15SparseOptimizer17clearIndexMappingEv(ptr noundef nonnull align 8 dereferenceable(409) %0) #5 align 2 {
  %2 = alloca ptr, align 8
  %3 = alloca i64, align 8
  store ptr %0, ptr %2, align 8
  %4 = load ptr, ptr %2, align 8
  store i64 0, ptr %3, align 8
  br label %5

5:                                                ; preds = %18, %1
  %6 = load i64, ptr %3, align 8
  %7 = getelementptr inbounds nuw %"class.g2o::SparseOptimizer", ptr %4, i32 0, i32 4
  %8 = call noundef i64 @_ZNKSt6vectorIPN3g2o16OptimizableGraph6VertexESaIS3_EE4sizeEv(ptr noundef nonnull align 8 dereferenceable(24) %7) #3
  %9 = icmp ult i64 %6, %8
  br i1 %9, label %10, label %21

10:                                               ; preds = %5
  %11 = getelementptr inbounds nuw %"class.g2o::SparseOptimizer", ptr %4, i32 0, i32 4
  %12 = load i64, ptr %3, align 8
  %13 = call noundef nonnull align 8 dereferenceable(8) ptr @_ZNSt6vectorIPN3g2o16OptimizableGraph6VertexESaIS3_EEixEm(ptr noundef nonnull align 8 dereferenceable(24) %11, i64 noundef %12) #3
  %14 = load ptr, ptr %13, align 8
  call void @_ZN3g2o16OptimizableGraph6Vertex15setHessianIndexEi(ptr noundef nonnull align 8 dereferenceable(128) %14, i32 noundef -1)
  %15 = getelementptr inbounds nuw %"class.g2o::SparseOptimizer", ptr %4, i32 0, i32 4
  %16 = load i64, ptr %3, align 8
  %17 = call noundef nonnull align 8 dereferenceable(8) ptr @_ZNSt6vectorIPN3g2o16OptimizableGraph6VertexESaIS3_EEixEm(ptr noundef nonnull align 8 dereferenceable(24) %15, i64 noundef %16) #3
  store ptr null, ptr %17, align 8
  br label %18

18:                                               ; preds = %10
  %19 = load i64, ptr %3, align 8
  %20 = add i64 %19, 1
  store i64 %20, ptr %3, align 8
  br label %5, !llvm.loop !14

21:                                               ; preds = %5
  ret void
}

; Function Attrs: mustprogress nounwind uwtable
define linkonce_odr noundef i32 @_ZNK3g2o16OptimizableGraph6Vertex12hessianIndexEv(ptr noundef nonnull align 8 dereferenceable(128) %0) #4 comdat align 2 {
  %2 = alloca ptr, align 8
  store ptr %0, ptr %2, align 8
  %3 = load ptr, ptr %2, align 8
  %4 = getelementptr inbounds nuw %"class.g2o::OptimizableGraph::Vertex", ptr %3, i32 0, i32 4
  %5 = load i32, ptr %4, align 8
  ret i32 %5
}

; Function Attrs: mustprogress uwtable
define noundef zeroext i1 @_ZN3g2o15SparseOptimizer12removeVertexEPNS_10HyperGraph6VertexEb(ptr noundef nonnull align 8 dereferenceable(409) %0, ptr noundef %1, i1 noundef zeroext %2) unnamed_addr #5 align 2 {
  %4 = alloca ptr, align 8
  %5 = alloca ptr, align 8
  %6 = alloca i8, align 1
  %7 = alloca ptr, align 8
  store ptr %0, ptr %4, align 8
  store ptr %1, ptr %5, align 8
  %8 = zext i1 %2 to i8
  store i8 %8, ptr %6, align 1
  %9 = load ptr, ptr %4, align 8
  %10 = load ptr, ptr %5, align 8
  store ptr %10, ptr %7, align 8
  %11 = load ptr, ptr %7, align 8
  %12 = call noundef i32 @_ZNK3g2o16OptimizableGraph6Vertex12hessianIndexEv(ptr noundef nonnull align 8 dereferenceable(128) %11)
  %13 = icmp sge i32 %12, 0
  br i1 %13, label %14, label %16

14:                                               ; preds = %3
  call void @_ZN3g2o15SparseOptimizer17clearIndexMappingEv(ptr noundef nonnull align 8 dereferenceable(409) %9)
  %15 = getelementptr inbounds nuw %"class.g2o::SparseOptimizer", ptr %9, i32 0, i32 4
  call void @_ZNSt6vectorIPN3g2o16OptimizableGraph6VertexESaIS3_EE5clearEv(ptr noundef nonnull align 8 dereferenceable(24) %15) #3
  br label %16

16:                                               ; preds = %14, %3
  %17 = load ptr, ptr %5, align 8
  %18 = load i8, ptr %6, align 1
  %19 = trunc i8 %18 to i1
  %20 = call noundef zeroext i1 @_ZN3g2o10HyperGraph12removeVertexEPNS0_6VertexEb(ptr noundef nonnull align 8 dereferenceable(112) %9, ptr noundef %17, i1 noundef zeroext %19)
  ret i1 %20
}