; Function Attrs: mustprogress uwtable
define noundef zeroext i1 @_ZN3g2o15SparseOptimizer12removeVertexEPNS_10HyperGraph6VertexEb(ptr noundef nonnull align 8 dereferenceable(409) %0, ptr noundef %1, i1 noundef zeroext %2) unnamed_addr #3 align 2 personality ptr @__gxx_personality_v0 {
  %4 = getelementptr inbounds nuw i8, ptr %1, i64 96
  %5 = load i32, ptr %4, align 8
  %6 = icmp sgt i32 %5, -1
  br i1 %6, label %7, label %_ZNSt6vectorIPN3g2o16OptimizableGraph6VertexESaIS3_EE5clearEv.exit

7:                                                ; preds = %3
  %8 = getelementptr inbounds nuw i8, ptr %0, i64 304
  %9 = getelementptr inbounds i8, ptr %0, i64 312
  %10 = load ptr, ptr %9, align 8
  %11 = load ptr, ptr %8, align 8
  %.not.i = icmp eq ptr %10, %11
  br i1 %.not.i, label %_ZN3g2o15SparseOptimizer17clearIndexMappingEv.exit, label %.lr.ph.i

.lr.ph.i:                                         ; preds = %7, %.lr.ph.i
  %12 = phi ptr [ %20, %.lr.ph.i ], [ %11, %7 ]
  %.04.i = phi i64 [ %18, %.lr.ph.i ], [ 0, %7 ]
  %13 = getelementptr inbounds ptr, ptr %12, i64 %.04.i
  %14 = load ptr, ptr %13, align 8
  %15 = getelementptr inbounds nuw i8, ptr %14, i64 96
  store i32 -1, ptr %15, align 8
  %16 = load ptr, ptr %8, align 8
  %17 = getelementptr inbounds ptr, ptr %16, i64 %.04.i
  store ptr null, ptr %17, align 8
  %18 = add nuw i64 %.04.i, 1
  %19 = load ptr, ptr %9, align 8
  %20 = load ptr, ptr %8, align 8
  %21 = ptrtoint ptr %19 to i64
  %22 = ptrtoint ptr %20 to i64
  %23 = sub i64 %21, %22
  %24 = ashr exact i64 %23, 3
  %25 = icmp ult i64 %18, %24
  br i1 %25, label %.lr.ph.i, label %_ZN3g2o15SparseOptimizer17clearIndexMappingEv.exit, !llvm.loop !16

_ZN3g2o15SparseOptimizer17clearIndexMappingEv.exit: ; preds = %.lr.ph.i, %7
  %26 = phi ptr [ %10, %7 ], [ %19, %.lr.ph.i ]
  %27 = phi ptr [ %11, %7 ], [ %20, %.lr.ph.i ]
  %.not.i.i = icmp eq ptr %26, %27
  br i1 %.not.i.i, label %_ZNSt6vectorIPN3g2o16OptimizableGraph6VertexESaIS3_EE5clearEv.exit, label %28

28:                                               ; preds = %_ZN3g2o15SparseOptimizer17clearIndexMappingEv.exit
  store ptr %27, ptr %9, align 8
  br label %_ZNSt6vectorIPN3g2o16OptimizableGraph6VertexESaIS3_EE5clearEv.exit

_ZNSt6vectorIPN3g2o16OptimizableGraph6VertexESaIS3_EE5clearEv.exit: ; preds = %28, %_ZN3g2o15SparseOptimizer17clearIndexMappingEv.exit, %3
  %29 = tail call noundef zeroext i1 @_ZN3g2o10HyperGraph12removeVertexEPNS0_6VertexEb(ptr noundef nonnull align 8 dereferenceable(112) %0, ptr noundef nonnull %1, i1 noundef zeroext %2)
  ret i1 %29
}